Certificate:
    Data:
        Version: 3 (0x2)
        Serial Number: 4102 (0x1006)
    Signature Algorithm: ecdsa-with-SHA256
        Issuer: C=BE, ST=Brussels-Capital Region, O=BlockMesh, CN=BlockMesh CA
        Validity
            Not Before: Feb 12 06:47:30 2016 GMT
            Not After : Feb 10 06:47:30 2021 GMT
        Subject: C=BE, ST=Brussels-Capital Region, O=BlockMesh, OU=BlockMesh Network, CN=BlockMesh Network Worker 5
        Subject Public Key Info:
            Public Key Algorithm: id-ecPublicKey
                Public-Key: (521 bit)
                pub: 
                    04:01:d2:a7:20:b1:91:ee:11:4c:f8:26:fb:ff:a1:
                    9e:d8:e9:16:fa:39:5b:2d:03:c6:54:e1:7c:5f:99:
                    df:76:8c:c8:14:66:35:b4:a6:10:3b:02:74:29:b9:
                    54:e8:92:ec:72:7f:af:c4:e7:e3:36:c2:d6:d4:fd:
                    b7:3b:c6:54:a1:f0:78:01:c2:6d:89:ba:e0:e2:1b:
                    6c:64:10:0a:06:ce:b9:fc:35:46:a6:af:d4:8e:02:
                    a2:1a:02:2c:70:b0:37:49:f5:8b:96:e8:b4:9c:9c:
                    42:71:18:5a:97:0d:4d:5a:c4:aa:17:b7:cb:17:a5:
                    14:70:ea:57:b4:6c:95:c2:34:50:94:2e:72
                ASN1 OID: secp521r1
        X509v3 extensions:
            X509v3 Basic Constraints: 
                CA:FALSE
            Netscape Comment: 
                OpenSSL Generated Certificate
            X509v3 Subject Key Identifier: 
                66:A5:EA:A7:53:D3:3E:AE:0F:F3:CA:31:C4:D6:27:96:87:BB:2A:D0
            X509v3 Authority Key Identifier: 
                keyid:5D:BD:01:7C:2F:2F:FA:D1:6C:C4:C0:B9:BC:FF:E0:83:15:75:29:B4

    Signature Algorithm: ecdsa-with-SHA256
         30:81:87:02:41:44:a3:31:2d:12:d8:aa:f8:cb:60:86:1b:2b:
         8c:1d:a3:24:8f:1b:83:1b:2e:d8:76:f2:64:7a:88:c9:64:a4:
         ab:de:74:4a:b7:62:2d:47:04:64:0f:44:c3:79:ff:9d:34:33:
         06:b5:74:4d:bf:fc:8b:ee:ba:7f:8a:69:95:03:16:f7:02:42:
         01:2c:8d:2c:7a:3c:f9:60:18:6a:3b:fd:0a:e6:bb:e5:8b:3d:
         58:8e:40:b6:6d:8a:39:5c:7c:c0:0d:43:bc:5a:b9:79:fb:c4:
         40:71:c5:80:62:65:47:14:9b:10:15:9e:4e:29:5b:b0:2b:2a:
         97:3f:df:e9:98:0c:f5:c7:e6:4e:1f:26
-----BEGIN CERTIFICATE-----
MIIC0TCCAjOgAwIBAgICEAYwCgYIKoZIzj0EAwIwWjELMAkGA1UEBhMCQkUxIDAe
BgNVBAgMF0JydXNzZWxzLUNhcGl0YWwgUmVnaW9uMRIwEAYDVQQKDAlCbG9ja01l
c2gxFTATBgNVBAMMDEJsb2NrTWVzaCBDQTAeFw0xNjAyMTIwNjQ3MzBaFw0yMTAy
MTAwNjQ3MzBaMIGEMQswCQYDVQQGEwJCRTEgMB4GA1UECAwXQnJ1c3NlbHMtQ2Fw
aXRhbCBSZWdpb24xEjAQBgNVBAoMCUJsb2NrTWVzaDEaMBgGA1UECwwRQmxvY2tN
ZXNoIE5ldHdvcmsxIzAhBgNVBAMMGkJsb2NrTWVzaCBOZXR3b3JrIFdvcmtlciA1
MIGbMBAGByqGSM49AgEGBSuBBAAjA4GGAAQB0qcgsZHuEUz4Jvv/oZ7Y6Rb6OVst
A8ZU4Xxfmd92jMgUZjW0phA7AnQpuVTokuxyf6/E5+M2wtbU/bc7xlSh8HgBwm2J
uuDiG2xkEAoGzrn8NUamr9SOAqIaAixwsDdJ9YuW6LScnEJxGFqXDU1axKoXt8sX
pRRw6le0bJXCNFCULnKjezB5MAkGA1UdEwQCMAAwLAYJYIZIAYb4QgENBB8WHU9w
ZW5TU0wgR2VuZXJhdGVkIENlcnRpZmljYXRlMB0GA1UdDgQWBBRmpeqnU9M+rg/z
yjHE1ieWh7sq0DAfBgNVHSMEGDAWgBRdvQF8Ly/60WzEwLm8/+CDFXUptDAKBggq
hkjOPQQDAgOBiwAwgYcCQUSjMS0S2Kr4y2CGGyuMHaMkjxuDGy7YdvJkeojJZKSr
3nRKt2ItRwRkD0TDef+dNDMGtXRNv/yL7rp/immVAxb3AkIBLI0sejz5YBhqO/0K
5rvliz1YjkC2bYo5XHzADUO8Wrl5+8RAccWAYmVHFJsQFZ5OKVuwKyqXP9/pmAz1
x+ZOHyY=
-----END CERTIFICATE-----
